target datalayout = "e-m:e-p270:32:32-p271:32:32-p272:64:64-i64:64-i128:128-f80:128-n8:16:32:64-S128"
target triple = "x86_64-pc-linux-gnu"

%struct.Aig_Obj_t_ = type { %union.anon, ptr, ptr, i64, i32, i32, %union.anon.0 }
%union.anon = type { ptr }
%union.anon.0 = type { ptr }

@.str = private unnamed_addr constant [38 x i8] c"The number of live nodes reached %d.\0A\00", align 1
@stdout = external global ptr, align 8

; Function Attrs: inlinehint nounwind uwtable
define internal i32 @Aig_IsComplement(ptr noundef %0) #3 {
  %2 = alloca ptr, align 8
  store ptr %0, ptr %2, align 8, !tbaa !8
  %3 = load ptr, ptr %2, align 8, !tbaa !8
  %4 = ptrtoint ptr %3 to i64
  %5 = and i64 %4, 1
  %6 = trunc i64 %5 to i32
  ret i32 %6
}

; Function Attrs: inlinehint nounwind uwtable
define internal ptr @Aig_Regular(ptr noundef %0) #3 {
  %2 = alloca ptr, align 8
  store ptr %0, ptr %2, align 8, !tbaa !8
  %3 = load ptr, ptr %2, align 8, !tbaa !8
  %4 = ptrtoint ptr %3 to i64
  %5 = and i64 %4, -2
  %6 = inttoptr i64 %5 to ptr
  ret ptr %6
}

; Function Attrs: inlinehint nounwind uwtable
define internal void @Aig_ObjSetGlobalBdd(ptr noundef %0, ptr noundef %1) #3 {
  %3 = alloca ptr, align 8
  %4 = alloca ptr, align 8
  store ptr %0, ptr %3, align 8, !tbaa !8
  store ptr %1, ptr %4, align 8, !tbaa !18
  %5 = load ptr, ptr %4, align 8, !tbaa !18
  %6 = load ptr, ptr %3, align 8, !tbaa !8
  %7 = getelementptr inbounds nuw %struct.Aig_Obj_t_, ptr %6, i32 0, i32 6
  store ptr %5, ptr %7, align 8, !tbaa !20
  ret void
}

; Function Attrs: inlinehint nounwind uwtable
define internal i32 @Aig_ObjFaninC1(ptr noundef %0) #3 {
  %2 = alloca ptr, align 8
  store ptr %0, ptr %2, align 8, !tbaa !8
  %3 = load ptr, ptr %2, align 8, !tbaa !8
  %4 = getelementptr inbounds nuw %struct.Aig_Obj_t_, ptr %3, i32 0, i32 2
  %5 = load ptr, ptr %4, align 8, !tbaa !23
  %6 = call i32 @Aig_IsComplement(ptr noundef %5)
  ret i32 %6
}

; Function Attrs: inlinehint nounwind uwtable
define internal i32 @Aig_ObjFaninC0(ptr noundef %0) #3 {
  %2 = alloca ptr, align 8
  store ptr %0, ptr %2, align 8, !tbaa !8
  %3 = load ptr, ptr %2, align 8, !tbaa !8
  %4 = getelementptr inbounds nuw %struct.Aig_Obj_t_, ptr %3, i32 0, i32 1
  %5 = load ptr, ptr %4, align 8, !tbaa !21
  %6 = call i32 @Aig_IsComplement(ptr noundef %5)
  ret i32 %6
}

; Function Attrs: inlinehint nounwind uwtable
define internal ptr @Aig_ObjFanin1(ptr noundef %0) #3 {
  %2 = alloca ptr, align 8
  store ptr %0, ptr %2, align 8, !tbaa !8
  %3 = load ptr, ptr %2, align 8, !tbaa !8
  %4 = getelementptr inbounds nuw %struct.Aig_Obj_t_, ptr %3, i32 0, i32 2
  %5 = load ptr, ptr %4, align 8, !tbaa !23
  %6 = call ptr @Aig_Regular(ptr noundef %5)
  ret ptr %6
}

; Function Attrs: inlinehint nounwind uwtable
define internal ptr @Aig_ObjFanin0(ptr noundef %0) #3 {
  %2 = alloca ptr, align 8
  store ptr %0, ptr %2, align 8, !tbaa !8
  %3 = load ptr, ptr %2, align 8, !tbaa !8
  %4 = getelementptr inbounds nuw %struct.Aig_Obj_t_, ptr %3, i32 0, i32 1
  %5 = load ptr, ptr %4, align 8, !tbaa !21
  %6 = call ptr @Aig_Regular(ptr noundef %5)
  ret ptr %6
}

; Function Attrs: inlinehint nounwind uwtable
define internal ptr @Aig_ObjGlobalBdd(ptr noundef %0) #3 {
  %2 = alloca ptr, align 8
  store ptr %0, ptr %2, align 8, !tbaa !8
  %3 = load ptr, ptr %2, align 8, !tbaa !8
  %4 = getelementptr inbounds nuw %struct.Aig_Obj_t_, ptr %3, i32 0, i32 6
  %5 = load ptr, ptr %4, align 8, !tbaa !20
  ret ptr %5
}

; Function Attrs: nounwind uwtable
define ptr @Bbr_NodeGlobalBdds_rec(ptr noundef %0, ptr noundef %1, i32 noundef %2, i32 noundef %3, ptr noundef %4, ptr noundef %5, i32 noundef %6) #0 {
  %8 = alloca ptr, align 8
  %9 = alloca ptr, align 8
  %10 = alloca ptr, align 8
  %11 = alloca i32, align 4
  %12 = alloca i32, align 4
  %13 = alloca ptr, align 8
  %14 = alloca ptr, align 8
  %15 = alloca i32, align 4
  %16 = alloca ptr, align 8
  %17 = alloca ptr, align 8
  %18 = alloca ptr, align 8
  %19 = alloca i32, align 4
  store ptr %0, ptr %9, align 8, !tbaa !3
  store ptr %1, ptr %10, align 8, !tbaa !8
  store i32 %2, ptr %11, align 4, !tbaa !10
  store i32 %3, ptr %12, align 4, !tbaa !10
  store ptr %4, ptr %13, align 8, !tbaa !12
  store ptr %5, ptr %14, align 8, !tbaa !14
  store i32 %6, ptr %15, align 4, !tbaa !10
  call void @llvm.lifetime.start.p0(i64 8, ptr %16) #7
  call void @llvm.lifetime.start.p0(i64 8, ptr %17) #7
  call void @llvm.lifetime.start.p0(i64 8, ptr %18) #7
  %20 = load ptr, ptr %9, align 8, !tbaa !3
  %21 = call i32 @Cudd_ReadKeys(ptr noundef %20)
  %22 = load ptr, ptr %9, align 8, !tbaa !3
  %23 = call i32 @Cudd_ReadDead(ptr noundef %22)
  %24 = sub i32 %21, %23
  %25 = load i32, ptr %11, align 4, !tbaa !10
  %26 = icmp ugt i32 %24, %25
  br i1 %26, label %27, label %36

27:                                               ; preds = %7
  %28 = load i32, ptr %15, align 4, !tbaa !10
  %29 = icmp ne i32 %28, 0
  br i1 %29, label %30, label %33

30:                                               ; preds = %27
  %31 = load i32, ptr %11, align 4, !tbaa !10
  %32 = call i32 (ptr, ...) @printf(ptr noundef @.str, i32 noundef %31)
  br label %33

33:                                               ; preds = %30, %27
  %34 = load ptr, ptr @stdout, align 8, !tbaa !16
  %35 = call i32 @fflush(ptr noundef %34)
  store ptr null, ptr %8, align 8
  store i32 1, ptr %19, align 4
  br label %123

36:                                               ; preds = %7
  %37 = load ptr, ptr %10, align 8, !tbaa !8
  %38 = call ptr @Aig_ObjGlobalBdd(ptr noundef %37)
  %39 = icmp eq ptr %38, null
  br i1 %39, label %40, label %97

40:                                               ; preds = %36
  %41 = load ptr, ptr %9, align 8, !tbaa !3
  %42 = load ptr, ptr %10, align 8, !tbaa !8
  %43 = call ptr @Aig_ObjFanin0(ptr noundef %42)
  %44 = load i32, ptr %11, align 4, !tbaa !10
  %45 = load i32, ptr %12, align 4, !tbaa !10
  %46 = load ptr, ptr %13, align 8, !tbaa !12
  %47 = load ptr, ptr %14, align 8, !tbaa !14
  %48 = load i32, ptr %15, align 4, !tbaa !10
  %49 = call ptr @Bbr_NodeGlobalBdds_rec(ptr noundef %41, ptr noundef %43, i32 noundef %44, i32 noundef %45, ptr noundef %46, ptr noundef %47, i32 noundef %48)
  store ptr %49, ptr %17, align 8, !tbaa !18
  %50 = load ptr, ptr %17, align 8, !tbaa !18
  %51 = icmp eq ptr %50, null
  br i1 %51, label %52, label %53

52:                                               ; preds = %40
  store ptr null, ptr %8, align 8
  store i32 1, ptr %19, align 4
  br label %123

53:                                               ; preds = %40
  %54 = load ptr, ptr %17, align 8, !tbaa !18
  call void @Cudd_Ref(ptr noundef %54)
  %55 = load ptr, ptr %9, align 8, !tbaa !3
  %56 = load ptr, ptr %10, align 8, !tbaa !8
  %57 = call ptr @Aig_ObjFanin1(ptr noundef %56)
  %58 = load i32, ptr %11, align 4, !tbaa !10
  %59 = load i32, ptr %12, align 4, !tbaa !10
  %60 = load ptr, ptr %13, align 8, !tbaa !12
  %61 = load ptr, ptr %14, align 8, !tbaa !14
  %62 = load i32, ptr %15, align 4, !tbaa !10
  %63 = call ptr @Bbr_NodeGlobalBdds_rec(ptr noundef %55, ptr noundef %57, i32 noundef %58, i32 noundef %59, ptr noundef %60, ptr noundef %61, i32 noundef %62)
  store ptr %63, ptr %18, align 8, !tbaa !18
  %64 = load ptr, ptr %18, align 8, !tbaa !18
  %65 = icmp eq ptr %64, null
  br i1 %65, label %66, label %67

66:                                               ; preds = %53
  store ptr null, ptr %8, align 8
  store i32 1, ptr %19, align 4
  br label %123

67:                                               ; preds = %53
  %68 = load ptr, ptr %18, align 8, !tbaa !18
  call void @Cudd_Ref(ptr noundef %68)
  %69 = load ptr, ptr %17, align 8, !tbaa !18
  %70 = ptrtoint ptr %69 to i64
  %71 = load ptr, ptr %10, align 8, !tbaa !8
  %72 = call i32 @Aig_ObjFaninC0(ptr noundef %71)
  %73 = sext i32 %72 to i64
  %74 = xor i64 %70, %73
  %75 = inttoptr i64 %74 to ptr
  store ptr %75, ptr %17, align 8, !tbaa !18
  %76 = load ptr, ptr %18, align 8, !tbaa !18
  %77 = ptrtoint ptr %76 to i64
  %78 = load ptr, ptr %10, align 8, !tbaa !8
  %79 = call i32 @Aig_ObjFaninC1(ptr noundef %78)
  %80 = sext i32 %79 to i64
  %81 = xor i64 %77, %80
  %82 = inttoptr i64 %81 to ptr
  store ptr %82, ptr %18, align 8, !tbaa !18
  %83 = load ptr, ptr %9, align 8, !tbaa !3
  %84 = load ptr, ptr %17, align 8, !tbaa !18
  %85 = load ptr, ptr %18, align 8, !tbaa !18
  %86 = call ptr @Cudd_bddAnd(ptr noundef %83, ptr noundef %84, ptr noundef %85)
  store ptr %86, ptr %16, align 8, !tbaa !18
  %87 = load ptr, ptr %16, align 8, !tbaa !18
  call void @Cudd_Ref(ptr noundef %87)
  %88 = load ptr, ptr %9, align 8, !tbaa !3
  %89 = load ptr, ptr %17, align 8, !tbaa !18
  call void @Cudd_RecursiveDeref(ptr noundef %88, ptr noundef %89)
  %90 = load ptr, ptr %9, align 8, !tbaa !3
  %91 = load ptr, ptr %18, align 8, !tbaa !18
  call void @Cudd_RecursiveDeref(ptr noundef %90, ptr noundef %91)
  %92 = load ptr, ptr %14, align 8, !tbaa !14
  %93 = load i32, ptr %92, align 4, !tbaa !10
  %94 = add nsw i32 %93, 1
  store i32 %94, ptr %92, align 4, !tbaa !10
  %95 = load ptr, ptr %10, align 8, !tbaa !8
  %96 = load ptr, ptr %16, align 8, !tbaa !18
  call void @Aig_ObjSetGlobalBdd(ptr noundef %95, ptr noundef %96)
  br label %97

97:                                               ; preds = %67, %36
  %98 = load ptr, ptr %10, align 8, !tbaa !8
  %99 = call ptr @Aig_ObjGlobalBdd(ptr noundef %98)
  store ptr %99, ptr %16, align 8, !tbaa !18
  %100 = load ptr, ptr %10, align 8, !tbaa !8
  %101 = getelementptr inbounds nuw %struct.Aig_Obj_t_, ptr %100, i32 0, i32 3
  %102 = load i64, ptr %101, align 8
  %103 = lshr i64 %102, 6
  %104 = and i64 %103, 67108863
  %105 = trunc i64 %104 to i32
  %106 = add i32 %105, -1
  %107 = zext i32 %106 to i64
  %108 = load i64, ptr %101, align 8
  %109 = and i64 %107, 67108863
  %110 = shl i64 %109, 6
  %111 = and i64 %108, -4294967233
  %112 = or i64 %111, %110
  store i64 %112, ptr %101, align 8
  %113 = trunc i64 %109 to i32
  %114 = icmp eq i32 %113, 0
  br i1 %114, label %115, label %121

115:                                              ; preds = %97
  %116 = load i32, ptr %12, align 4, !tbaa !10
  %117 = icmp ne i32 %116, 0
  br i1 %117, label %118, label %121

118:                                              ; preds = %115
  %119 = load ptr, ptr %16, align 8, !tbaa !18
  call void @Cudd_Deref(ptr noundef %119)
  %120 = load ptr, ptr %10, align 8, !tbaa !8
  call void @Aig_ObjSetGlobalBdd(ptr noundef %120, ptr noundef null)
  br label %121

121:                                              ; preds = %118, %115, %97
  %122 = load ptr, ptr %16, align 8, !tbaa !18
  store ptr %122, ptr %8, align 8
  store i32 1, ptr %19, align 4
  br label %123

123:                                              ; preds = %121, %66, %52, %33
  call void @llvm.lifetime.end.p0(i64 8, ptr %18) #7
  call void @llvm.lifetime.end.p0(i64 8, ptr %17) #7
  call void @llvm.lifetime.end.p0(i64 8, ptr %16) #7
  %124 = load ptr, ptr %8, align 8
  ret ptr %124
}