; Function Attrs: nounwind uwtable
define ptr @Bbr_NodeGlobalBdds_rec(ptr noundef %0, ptr noundef captures(none) %1, i32 noundef %2, i32 noundef %3, ptr noundef %4, ptr noundef %5, i32 noundef %6) local_unnamed_addr #0 {
  %8 = tail call i32 @Cudd_ReadKeys(ptr noundef %0) #8
  %9 = tail call i32 @Cudd_ReadDead(ptr noundef %0) #8
  %10 = sub i32 %8, %9
  %11 = icmp ugt i32 %10, %2
  br i1 %11, label %12, label %18

12:                                               ; preds = %7
  %.not = icmp eq i32 %6, 0
  br i1 %.not, label %15, label %13

13:                                               ; preds = %12
  %14 = tail call i32 (ptr, ...) @printf(ptr noundef nonnull dereferenceable(1) @.str, i32 noundef %2)
  br label %15

15:                                               ; preds = %13, %12
  %16 = load ptr, ptr @stdout, align 8, !tbaa !3
  %17 = tail call i32 @fflush(ptr noundef %16)
  br label %63

18:                                               ; preds = %7
  %19 = getelementptr i8, ptr %1, i64 40
  %.val = load ptr, ptr %19, align 8, !tbaa !8
  %20 = icmp eq ptr %.val, null
  br i1 %20, label %21, label %49

21:                                               ; preds = %18
  %22 = getelementptr i8, ptr %1, i64 8
  %.val50 = load ptr, ptr %22, align 8, !tbaa !9
  %23 = ptrtoint ptr %.val50 to i64
  %24 = and i64 %23, -2
  %25 = inttoptr i64 %24 to ptr
  %26 = tail call ptr @Bbr_NodeGlobalBdds_rec(ptr noundef %0, ptr noundef %25, i32 noundef %2, i32 noundef %3, ptr noundef %4, ptr noundef %5, i32 noundef %6)
  %27 = icmp eq ptr %26, null
  br i1 %27, label %63, label %28

28:                                               ; preds = %21
  tail call void @Cudd_Ref(ptr noundef nonnull %26) #8
  %29 = getelementptr i8, ptr %1, i64 16
  %.val51 = load ptr, ptr %29, align 8, !tbaa !13
  %30 = ptrtoint ptr %.val51 to i64
  %31 = and i64 %30, -2
  %32 = inttoptr i64 %31 to ptr
  %33 = tail call ptr @Bbr_NodeGlobalBdds_rec(ptr noundef %0, ptr noundef %32, i32 noundef %2, i32 noundef %3, ptr noundef %4, ptr noundef %5, i32 noundef %6)
  %34 = icmp eq ptr %33, null
  br i1 %34, label %63, label %35

35:                                               ; preds = %28
  tail call void @Cudd_Ref(ptr noundef nonnull %33) #8
  %36 = ptrtoint ptr %26 to i64
  %.val52 = load ptr, ptr %22, align 8, !tbaa !9
  %37 = ptrtoint ptr %.val52 to i64
  %38 = and i64 %37, 1
  %39 = xor i64 %38, %36
  %40 = inttoptr i64 %39 to ptr
  %41 = ptrtoint ptr %33 to i64
  %.val53 = load ptr, ptr %29, align 8, !tbaa !13
  %42 = ptrtoint ptr %.val53 to i64
  %43 = and i64 %42, 1
  %44 = xor i64 %43, %41
  %45 = inttoptr i64 %44 to ptr
  %46 = tail call ptr @Cudd_bddAnd(ptr noundef %0, ptr noundef %40, ptr noundef %45) #8
  tail call void @Cudd_Ref(ptr noundef %46) #8
  tail call void @Cudd_RecursiveDeref(ptr noundef %0, ptr noundef %40) #8
  tail call void @Cudd_RecursiveDeref(ptr noundef %0, ptr noundef %45) #8
  %47 = load i32, ptr %5, align 4, !tbaa !14
  %48 = add nsw i32 %47, 1
  store i32 %48, ptr %5, align 4, !tbaa !14
  store ptr %46, ptr %19, align 8, !tbaa !8
  br label %49

49:                                               ; preds = %35, %18
  %.val49 = phi ptr [ %46, %35 ], [ %.val, %18 ]
  %50 = getelementptr inbounds nuw i8, ptr %1, i64 24
  %51 = load i64, ptr %50, align 8
  %52 = trunc i64 %51 to i32
  %53 = lshr i32 %52, 6
  %54 = add nuw nsw i32 %53, 67108863
  %55 = and i32 %54, 67108863
  %56 = shl i32 %54, 6
  %57 = zext i32 %56 to i64
  %58 = and i64 %51, -4294967233
  %59 = or disjoint i64 %58, %57
  store i64 %59, ptr %50, align 8
  %60 = icmp eq i32 %55, 0
  %61 = icmp ne i32 %3, 0
  %or.cond = and i1 %61, %60
  br i1 %or.cond, label %62, label %63

62:                                               ; preds = %49
  tail call void @Cudd_Deref(ptr noundef %.val49) #8
  store ptr null, ptr %19, align 8, !tbaa !8
  br label %63

63:                                               ; preds = %49, %62, %28, %21, %15
  %.0 = phi ptr [ null, %15 ], [ null, %21 ], [ null, %28 ], [ %.val49, %62 ], [ %.val49, %49 ]
  ret ptr %.0
}